; Function Attrs: mustprogress nofree norecurse nosync nounwind willreturn memory(argmem: readwrite) uwtable
define dso_local void @archive_entry_set_rdevminor(ptr noundef captures(none) initializes((16, 20), (160, 164), (168, 176), (184, 192)) %0, i64 noundef %1) local_unnamed_addr #7 {
  %3 = getelementptr inbounds nuw i8, ptr %0, i64 16
  store i32 0, ptr %3, align 8, !tbaa !78
  %4 = getelementptr inbounds nuw i8, ptr %0, i64 160
  store i32 1, ptr %4, align 8, !tbaa !72
  %5 = getelementptr inbounds nuw i8, ptr %0, i64 168
  store i64 0, ptr %5, align 8, !tbaa !75
  %6 = getelementptr inbounds nuw i8, ptr %0, i64 184
  store i64 %1, ptr %6, align 8, !tbaa !74
  %7 = getelementptr inbounds nuw i8, ptr %0, i64 192
  %8 = load i32, ptr %7, align 8, !tbaa !31
  %9 = or i32 %8, 8192
  store i32 %9, ptr %7, align 8, !tbaa !31
  ret void
}